; Function Attrs: mustprogress uwtable
define noundef i32 @_ZN6colvar15check_cvc_rangeEim(ptr noundef nonnull align 8 dereferenceable(4624) %0, i32 noundef %1, i64 %2) local_unnamed_addr #2 align 2 personality ptr @__gxx_personality_v0 {
  %4 = alloca %"class.std::__cxx11::basic_string", align 8
  %5 = alloca %"class.std::__cxx11::basic_string", align 8
  %6 = icmp slt i32 %1, 0
  br i1 %6, label %17, label %7

7:                                                ; preds = %3
  %8 = getelementptr inbounds i8, ptr %0, i64 4432
  %9 = getelementptr inbounds i8, ptr %0, i64 4440
  %10 = load ptr, ptr %9, align 8
  %11 = load ptr, ptr %8, align 8
  %12 = ptrtoint ptr %10 to i64
  %13 = ptrtoint ptr %11 to i64
  %14 = sub i64 %12, %13
  %15 = lshr exact i64 %14, 3
  %16 = trunc i64 %15 to i32
  %.not = icmp sgt i32 %16, %1
  br i1 %.not, label %28, label %17

17:                                               ; preds = %7, %3
  %18 = getelementptr inbounds i8, ptr %0, i64 440
  call void @_ZStplIcSt11char_traitsIcESaIcEENSt7__cxx1112basic_stringIT_T0_T1_EEPKS5_RKS8_(ptr dead_on_unwind nonnull writable sret(%"class.std::__cxx11::basic_string") align 8 %5, ptr noundef nonnull @.str.288, ptr noundef nonnull align 8 dereferenceable(32) %18)
  %19 = invoke noundef nonnull align 8 dereferenceable(32) ptr @_ZNSt7__cxx1112basic_stringIcSt11char_traitsIcESaIcEE6appendEPKc(ptr noundef nonnull align 8 dereferenceable(32) %5, ptr noundef nonnull @.str.12)
          to label %20 unwind label %23

20:                                               ; preds = %17
  call void @_ZNSt7__cxx1112basic_stringIcSt11char_traitsIcESaIcEEC1EOS4_(ptr noundef nonnull align 8 dereferenceable(32) %4, ptr noundef nonnull align 8 dereferenceable(32) %19) #23
  %21 = invoke noundef i32 @_ZN12colvarmodule5errorERKNSt7__cxx1112basic_stringIcSt11char_traitsIcESaIcEEEi(ptr noundef nonnull align 8 dereferenceable(32) %4, i32 noundef 8)
          to label %22 unwind label %25

22:                                               ; preds = %20
  call void @_ZNSt7__cxx1112basic_stringIcSt11char_traitsIcESaIcEED1Ev(ptr noundef nonnull align 8 dereferenceable(32) %4) #23
  call void @_ZNSt7__cxx1112basic_stringIcSt11char_traitsIcESaIcEED1Ev(ptr noundef nonnull align 8 dereferenceable(32) %5) #23
  br label %28

23:                                               ; preds = %17
  %24 = landingpad { ptr, i32 }
          cleanup
  br label %27

25:                                               ; preds = %20
  %26 = landingpad { ptr, i32 }
          cleanup
  call void @_ZNSt7__cxx1112basic_stringIcSt11char_traitsIcESaIcEED1Ev(ptr noundef nonnull align 8 dereferenceable(32) %4) #23
  br label %27

27:                                               ; preds = %25, %23
  %.pn = phi { ptr, i32 } [ %26, %25 ], [ %24, %23 ]
  call void @_ZNSt7__cxx1112basic_stringIcSt11char_traitsIcESaIcEED1Ev(ptr noundef nonnull align 8 dereferenceable(32) %5) #23
  resume { ptr, i32 } %.pn

28:                                               ; preds = %7, %22
  %.06 = phi i32 [ 8, %22 ], [ 0, %7 ]
  ret i32 %.06
}